target datalayout = "e-m:e-p270:32:32-p271:32:32-p272:64:64-i64:64-i128:128-f80:128-n8:16:32:64-S128"
target triple = "x86_64-pc-linux-gnu"

; Function Attrs: mustprogress nounwind uwtable
define void @UCNV_FROM_U_CALLBACK_SKIP_77(ptr noundef %0, ptr noundef %1, ptr noundef %2, i32 noundef %3, i32 noundef %4, i32 noundef %5, ptr noundef %6) #0 {
  %8 = alloca ptr, align 8
  %9 = alloca ptr, align 8
  %10 = alloca ptr, align 8
  %11 = alloca i32, align 4
  %12 = alloca i32, align 4
  %13 = alloca i32, align 4
  %14 = alloca ptr, align 8
  store ptr %0, ptr %8, align 8, !tbaa !3
  store ptr %1, ptr %9, align 8, !tbaa !3
  store ptr %2, ptr %10, align 8, !tbaa !7
  store i32 %3, ptr %11, align 4, !tbaa !9
  store i32 %4, ptr %12, align 4, !tbaa !9
  store i32 %5, ptr %13, align 4, !tbaa !11
  store ptr %6, ptr %14, align 8, !tbaa !3
  %15 = load i32, ptr %13, align 4, !tbaa !11
  %16 = icmp sle i32 %15, 2
  br i1 %16, label %17, label %121

17:                                               ; preds = %7
  %18 = load i32, ptr %13, align 4, !tbaa !11
  %19 = icmp eq i32 %18, 0
  br i1 %19, label %20, label %106

20:                                               ; preds = %17
  %21 = load i32, ptr %12, align 4, !tbaa !9
  %22 = icmp eq i32 %21, 173
  br i1 %22, label %104, label %23

23:                                               ; preds = %20
  %24 = load i32, ptr %12, align 4, !tbaa !9
  %25 = icmp eq i32 %24, 847
  br i1 %25, label %104, label %26

26:                                               ; preds = %23
  %27 = load i32, ptr %12, align 4, !tbaa !9
  %28 = icmp eq i32 %27, 1564
  br i1 %28, label %104, label %29

29:                                               ; preds = %26
  %30 = load i32, ptr %12, align 4, !tbaa !9
  %31 = icmp eq i32 %30, 4447
  br i1 %31, label %104, label %32

32:                                               ; preds = %29
  %33 = load i32, ptr %12, align 4, !tbaa !9
  %34 = icmp eq i32 %33, 4448
  br i1 %34, label %104, label %35

35:                                               ; preds = %32
  %36 = load i32, ptr %12, align 4, !tbaa !9
  %37 = icmp sle i32 6068, %36
  br i1 %37, label %38, label %41

38:                                               ; preds = %35
  %39 = load i32, ptr %12, align 4, !tbaa !9
  %40 = icmp sle i32 %39, 6069
  br i1 %40, label %104, label %41

41:                                               ; preds = %38, %35
  %42 = load i32, ptr %12, align 4, !tbaa !9
  %43 = icmp sle i32 6155, %42
  br i1 %43, label %44, label %47

44:                                               ; preds = %41
  %45 = load i32, ptr %12, align 4, !tbaa !9
  %46 = icmp sle i32 %45, 6159
  br i1 %46, label %104, label %47

47:                                               ; preds = %44, %41
  %48 = load i32, ptr %12, align 4, !tbaa !9
  %49 = icmp sle i32 8203, %48
  br i1 %49, label %50, label %53

50:                                               ; preds = %47
  %51 = load i32, ptr %12, align 4, !tbaa !9
  %52 = icmp sle i32 %51, 8207
  br i1 %52, label %104, label %53

53:                                               ; preds = %50, %47
  %54 = load i32, ptr %12, align 4, !tbaa !9
  %55 = icmp sle i32 8234, %54
  br i1 %55, label %56, label %59

56:                                               ; preds = %53
  %57 = load i32, ptr %12, align 4, !tbaa !9
  %58 = icmp sle i32 %57, 8238
  br i1 %58, label %104, label %59

59:                                               ; preds = %56, %53
  %60 = load i32, ptr %12, align 4, !tbaa !9
  %61 = icmp sle i32 8288, %60
  br i1 %61, label %62, label %65

62:                                               ; preds = %59
  %63 = load i32, ptr %12, align 4, !tbaa !9
  %64 = icmp sle i32 %63, 8303
  br i1 %64, label %104, label %65

65:                                               ; preds = %62, %59
  %66 = load i32, ptr %12, align 4, !tbaa !9
  %67 = icmp eq i32 %66, 12644
  br i1 %67, label %104, label %68

68:                                               ; preds = %65
  %69 = load i32, ptr %12, align 4, !tbaa !9
  %70 = icmp sle i32 65024, %69
  br i1 %70, label %71, label %74

71:                                               ; preds = %68
  %72 = load i32, ptr %12, align 4, !tbaa !9
  %73 = icmp sle i32 %72, 65039
  br i1 %73, label %104, label %74

74:                                               ; preds = %71, %68
  %75 = load i32, ptr %12, align 4, !tbaa !9
  %76 = icmp eq i32 %75, 65279
  br i1 %76, label %104, label %77

77:                                               ; preds = %74
  %78 = load i32, ptr %12, align 4, !tbaa !9
  %79 = icmp eq i32 %78, 65440
  br i1 %79, label %104, label %80

80:                                               ; preds = %77
  %81 = load i32, ptr %12, align 4, !tbaa !9
  %82 = icmp sle i32 65520, %81
  br i1 %82, label %83, label %86

83:                                               ; preds = %80
  %84 = load i32, ptr %12, align 4, !tbaa !9
  %85 = icmp sle i32 %84, 65528
  br i1 %85, label %104, label %86

86:                                               ; preds = %83, %80
  %87 = load i32, ptr %12, align 4, !tbaa !9
  %88 = icmp sle i32 113824, %87
  br i1 %88, label %89, label %92

89:                                               ; preds = %86
  %90 = load i32, ptr %12, align 4, !tbaa !9
  %91 = icmp sle i32 %90, 113827
  br i1 %91, label %104, label %92

92:                                               ; preds = %89, %86
  %93 = load i32, ptr %12, align 4, !tbaa !9
  %94 = icmp sle i32 119155, %93
  br i1 %94, label %95, label %98

95:                                               ; preds = %92
  %96 = load i32, ptr %12, align 4, !tbaa !9
  %97 = icmp sle i32 %96, 119162
  br i1 %97, label %104, label %98

98:                                               ; preds = %95, %92
  %99 = load i32, ptr %12, align 4, !tbaa !9
  %100 = icmp sle i32 917504, %99
  br i1 %100, label %101, label %106

101:                                              ; preds = %98
  %102 = load i32, ptr %12, align 4, !tbaa !9
  %103 = icmp sle i32 %102, 921599
  br i1 %103, label %104, label %106

104:                                              ; preds = %101, %95, %89, %83, %77, %74, %71, %65, %62, %56, %50, %44, %38, %32, %29, %26, %23, %20
  %105 = load ptr, ptr %14, align 8, !tbaa !3
  store i32 0, ptr %105, align 4, !tbaa !13
  br label %120

106:                                              ; preds = %101, %98, %17
  %107 = load ptr, ptr %8, align 8, !tbaa !3
  %108 = icmp eq ptr %107, null
  br i1 %108, label %117, label %109

109:                                              ; preds = %106
  %110 = load ptr, ptr %8, align 8, !tbaa !3
  %111 = load i8, ptr %110, align 1, !tbaa !17
  %112 = sext i8 %111 to i32
  %113 = icmp eq i32 %112, 105
  br i1 %113, label %114, label %119

114:                                              ; preds = %109
  %115 = load i32, ptr %13, align 4, !tbaa !11
  %116 = icmp eq i32 %115, 0
  br i1 %116, label %117, label %119

117:                                              ; preds = %114, %106
  %118 = load ptr, ptr %14, align 8, !tbaa !3
  store i32 0, ptr %118, align 4, !tbaa !13
  br label %119

119:                                              ; preds = %117, %114, %109
  br label %120

120:                                              ; preds = %119, %104
  br label %121

121:                                              ; preds = %120, %7
  ret void
}