; Function Attrs: mustprogress nofree norecurse nosync nounwind willreturn memory(argmem: readwrite) uwtable
define void @UCNV_FROM_U_CALLBACK_SKIP_77(ptr noundef readonly %0, ptr noundef readnone captures(none) %1, ptr noundef readnone captures(none) %2, i32 noundef %3, i32 noundef %4, i32 noundef %5, ptr noundef writeonly captures(none) %6) local_unnamed_addr #2 {
  %8 = icmp slt i32 %5, 3
  br i1 %8, label %9, label %27

9:                                                ; preds = %7
  %10 = icmp eq i32 %5, 0
  br i1 %10, label %11, label %23

11:                                               ; preds = %9
  switch i32 %4, label %12 [
    i32 4448, label %.sink.split
    i32 4447, label %.sink.split
    i32 1564, label %.sink.split
    i32 847, label %.sink.split
    i32 173, label %.sink.split
    i32 8238, label %.sink.split
    i32 8237, label %.sink.split
    i32 8236, label %.sink.split
    i32 8235, label %.sink.split
    i32 8234, label %.sink.split
    i32 8207, label %.sink.split
    i32 8206, label %.sink.split
    i32 8205, label %.sink.split
    i32 8204, label %.sink.split
    i32 8203, label %.sink.split
    i32 6159, label %.sink.split
    i32 6158, label %.sink.split
    i32 6157, label %.sink.split
    i32 6156, label %.sink.split
    i32 6155, label %.sink.split
    i32 6069, label %.sink.split
    i32 6068, label %.sink.split
  ]

12:                                               ; preds = %11
  %13 = and i32 %4, -16
  %or.cond17 = icmp eq i32 %13, 8288
  %14 = icmp eq i32 %4, 12644
  %or.cond19 = or i1 %14, %or.cond17
  br i1 %or.cond19, label %.sink.split, label %15

15:                                               ; preds = %12
  %or.cond21 = icmp eq i32 %13, 65024
  %16 = icmp eq i32 %4, 65279
  %or.cond23 = or i1 %16, %or.cond21
  %17 = icmp eq i32 %4, 65440
  %or.cond25 = or i1 %17, %or.cond23
  %18 = add i32 %4, -65520
  %or.cond27 = icmp ult i32 %18, 9
  %or.cond73 = or i1 %or.cond27, %or.cond25
  %19 = and i32 %4, -4
  %or.cond29 = icmp eq i32 %19, 113824
  %or.cond74 = or i1 %or.cond29, %or.cond73
  %20 = add i32 %4, -119155
  %or.cond31 = icmp ult i32 %20, 8
  %or.cond75 = or i1 %or.cond31, %or.cond74
  %21 = and i32 %4, -4096
  %or.cond33 = icmp eq i32 %21, 917504
  %or.cond76 = or i1 %or.cond33, %or.cond75
  %22 = icmp eq ptr %0, null
  %or.cond = or i1 %or.cond76, %22
  br i1 %or.cond, label %.sink.split, label %24

23:                                               ; preds = %9
  %.old = icmp eq ptr %0, null
  br i1 %.old, label %.sink.split, label %24

24:                                               ; preds = %15, %23
  %25 = load i8, ptr %0, align 1, !tbaa !7
  %26 = icmp eq i8 %25, 105
  %or.cond35 = and i1 %10, %26
  br i1 %or.cond35, label %.sink.split, label %27

.sink.split:                                      ; preds = %23, %24, %12, %15, %11, %11, %11, %11, %11, %11, %11, %11, %11, %11, %11, %11, %11, %11, %11, %11, %11, %11, %11, %11, %11, %11
  store i32 0, ptr %6, align 4, !tbaa !3
  br label %27

27:                                               ; preds = %.sink.split, %24, %7
  ret void
}